address  bytes       decoded instructions
-----------------------------------------
00000000 27bdffd0    addiu $sp, $sp, -48
00000004 afbf002c    sw $ra, 44($sp)
00000008 afbe0028    sw $fp, 40($sp)
0000000c 03a0f025    or $fp, $zero, $sp
00000010 3c1c0000    lui $zero, $gp, 0
00000014 279c0000    addiu $gp, $gp, 0
00000018 afbc0010    sw $gp, 16($sp)
0000001c afc40030    sw $a0, 48($fp)
00000020 afc50034    sw $a1, 52($fp)
00000024 afc60038    sw $a2, 56($fp)
00000028 8fc20034    lw $v0, 52($fp)
0000002c 00021080    sll $v0, $v0, 2
00000030 00402025    or $a0, $zero, $v0
00000034 8f820000    lw $v0, 0($gp)
00000038 0040c825    or $t9, $zero, $v0
0000003c 0320f809    jalr $t9, $ra
00000040 00000000    nop
00000044 8fdc0010    lw $gp, 16($fp)
00000048 afc20024    sw $v0, 36($fp)
0000004c afc00018    sw $zero, 24($fp)
00000050 8fc20038    lw $v0, 56($fp)
00000054 afc2001c    sw $v0, 28($fp)
00000058 afc00020    sw $zero, 32($fp)
0000005c 10000040    beq $zero, $zero, loc_00000160
00000060 00000000    nop
00000064     loc_00000064
00000064 8fc20020    lw $v0, 32($fp)
00000068 00021080    sll $v0, $v0, 2
0000006c 8fc30024    lw $v1, 36($fp)
00000070 00621821    addu $v1, $v1, $v0
00000074 8fc4001c    lw $a0, 28($fp)
00000078 8fc20034    lw $v0, 52($fp)
0000007c 1482000a    bne $a0, $v0, loc_000000a8
00000080 00000000    nop
00000084 8fc20018    lw $v0, 24($fp)
00000088 24440001    addiu $a0, $v0, 1
0000008c afc40018    sw $a0, 24($fp)
00000090 00021080    sll $v0, $v0, 2
00000094 8fc40030    lw $a0, 48($fp)
00000098 00821021    addu $v0, $a0, $v0
0000009c 8c420000    lw $v0, 0($v0)
000000a0 1000002b    beq $zero, $zero, loc_00000150
000000a4 00000000    nop
000000a8     loc_000000a8
000000a8 8fc40018    lw $a0, 24($fp)
000000ac 8fc20038    lw $v0, 56($fp)
000000b0 1482000a    bne $a0, $v0, loc_000000dc
000000b4 00000000    nop
000000b8 8fc2001c    lw $v0, 28($fp)
000000bc 24440001    addiu $a0, $v0, 1
000000c0 afc4001c    sw $a0, 28($fp)
000000c4 00021080    sll $v0, $v0, 2
000000c8 8fc40030    lw $a0, 48($fp)
000000cc 00821021    addu $v0, $a0, $v0
000000d0 8c420000    lw $v0, 0($v0)
000000d4 1000001e    beq $zero, $zero, loc_00000150
000000d8 00000000    nop
000000dc     loc_000000dc
000000dc 8fc2001c    lw $v0, 28($fp)
000000e0 00021080    sll $v0, $v0, 2
000000e4 8fc40030    lw $a0, 48($fp)
000000e8 00821021    addu $v0, $a0, $v0
000000ec 8c440000    lw $a0, 0($v0)
000000f0 8fc20018    lw $v0, 24($fp)
000000f4 00021080    sll $v0, $v0, 2
000000f8 8fc50030    lw $a1, 48($fp)
000000fc 00a21021    addu $v0, $a1, $v0
00000100 8c420000    lw $v0, 0($v0)
00000104 0082102a    slt $v0, $v0, $a0
00000108 1040000a    beq $v0, $zero, loc_00000134
0000010c 00000000    nop
00000110 8fc2001c    lw $v0, 28($fp)
00000114 24440001    addiu $a0, $v0, 1
00000118 afc4001c    sw $a0, 28($fp)
0000011c 00021080    sll $v0, $v0, 2
00000120 8fc40030    lw $a0, 48($fp)
00000124 00821021    addu $v0, $a0, $v0
00000128 8c420000    lw $v0, 0($v0)
0000012c 10000008    beq $zero, $zero, loc_00000150
00000130 00000000    nop
00000134     loc_00000134
00000134 8fc20018    lw $v0, 24($fp)
00000138 24440001    addiu $a0, $v0, 1
0000013c afc40018    sw $a0, 24($fp)
00000140 00021080    sll $v0, $v0, 2
00000144 8fc40030    lw $a0, 48($fp)
00000148 00821021    addu $v0, $a0, $v0
0000014c 8c420000    lw $v0, 0($v0)
00000150     loc_00000150
00000150 ac620000    sw $v0, 0($v1)
00000154 8fc20020    lw $v0, 32($fp)
00000158 24420001    addiu $v0, $v0, 1
0000015c afc20020    sw $v0, 32($fp)
00000160     loc_00000160
00000160 8fc30020    lw $v1, 32($fp)
00000164 8fc20034    lw $v0, 52($fp)
00000168 0062102a    slt $v0, $v0, $v1
0000016c 1440ffbd    bne $v0, $zero, loc_00000064
00000170 00000000    nop
00000174 afc00018    sw $zero, 24($fp)
00000178 1000000e    beq $zero, $zero, loc_000001b4
0000017c 00000000    nop
00000180     loc_00000180
00000180 8fc20018    lw $v0, 24($fp)
00000184 00021080    sll $v0, $v0, 2
00000188 8fc30030    lw $v1, 48($fp)
0000018c 00621021    addu $v0, $v1, $v0
00000190 8fc30018    lw $v1, 24($fp)
00000194 00031880    sll $v1, $v1, 2
00000198 8fc40024    lw $a0, 36($fp)
0000019c 00831821    addu $v1, $a0, $v1
000001a0 8c630000    lw $v1, 0($v1)
000001a4 ac430000    sw $v1, 0($v0)
000001a8 8fc20018    lw $v0, 24($fp)
000001ac 24420001    addiu $v0, $v0, 1
000001b0 afc20018    sw $v0, 24($fp)
000001b4     loc_000001b4
000001b4 8fc30018    lw $v1, 24($fp)
000001b8 8fc20034    lw $v0, 52($fp)
000001bc 0062102a    slt $v0, $v0, $v1
000001c0 1440ffef    bne $v0, $zero, loc_00000180
000001c4 00000000    nop
000001c8 8fc40024    lw $a0, 36($fp)
000001cc 8f820000    lw $v0, 0($gp)
000001d0 0040c825    or $t9, $zero, $v0
000001d4 0320f809    jalr $t9, $ra
000001d8 00000000    nop
000001dc 8fdc0010    lw $gp, 16($fp)
000001e0 00000000    nop
000001e4 03c0e825    or $sp, $zero, $fp
000001e8 8fbf002c    lw $ra, 44($sp)
000001ec 8fbe0028    lw $fp, 40($sp)
000001f0 27bd0030    addiu $sp, $sp, 48
000001f4 03e00008    jr $ra
000001f8 00000000    nop
000001fc 00000000    nop
